target datalayout = "e-m:e-p270:32:32-p271:32:32-p272:64:64-i64:64-i128:128-f80:128-n8:16:32:64-S128"
target triple = "x86_64-pc-linux-gnu"

%struct.JNIEnv_ = type { ptr }
%struct.JNINativeInterface_ = type { ptr, ptr, ptr, ptr, ptr, ptr, ptr, ptr, ptr, ptr, ptr, ptr, ptr, ptr, ptr, ptr, ptr, ptr, ptr, ptr, ptr, ptr, ptr, ptr, ptr, ptr, ptr, ptr, ptr, ptr, ptr, ptr, ptr, ptr, ptr, ptr, ptr, ptr, ptr, ptr, ptr, ptr, ptr, ptr, ptr, ptr, ptr, ptr, ptr, ptr, ptr, ptr, ptr, ptr, ptr, ptr, ptr, ptr, ptr, ptr, ptr, ptr, ptr, ptr, ptr, ptr, ptr, ptr, ptr, ptr, ptr, ptr, ptr, ptr, ptr, ptr, ptr, ptr, ptr, ptr, ptr, ptr, ptr, ptr, ptr, ptr, ptr, ptr, ptr, ptr, ptr, ptr, ptr, ptr, ptr, ptr, ptr, ptr, ptr, ptr, ptr, ptr, ptr, ptr, ptr, ptr, ptr, ptr, ptr, ptr, ptr, ptr, ptr, ptr, ptr, ptr, ptr, ptr, ptr, ptr, ptr, ptr, ptr, ptr, ptr, ptr, ptr, ptr, ptr, ptr, ptr, ptr, ptr, ptr, ptr, ptr, ptr, ptr, ptr, ptr, ptr, ptr, ptr, ptr, ptr, ptr, ptr, ptr, ptr, ptr, ptr, ptr, ptr, ptr, ptr, ptr, ptr, ptr, ptr, ptr, ptr, ptr, ptr, ptr, ptr, ptr, ptr, ptr, ptr, ptr, ptr, ptr, ptr, ptr, ptr, ptr, ptr, ptr, ptr, ptr, ptr, ptr, ptr, ptr, ptr, ptr, ptr, ptr, ptr, ptr, ptr, ptr, ptr, ptr, ptr, ptr, ptr, ptr, ptr, ptr, ptr, ptr, ptr, ptr, ptr, ptr, ptr, ptr, ptr, ptr, ptr, ptr, ptr, ptr, ptr, ptr, ptr, ptr, ptr, ptr, ptr, ptr, ptr, ptr, ptr, ptr, ptr, ptr, ptr, ptr, ptr, ptr, ptr, ptr, ptr }

@_ZL18p_dwarf_context_ID = internal global ptr null, align 8
@.str.21 = private unnamed_addr constant [43 x i8] c"sun/jvm/hotspot/debugger/DebuggerException\00", align 1
@.str.23 = private unnamed_addr constant [27 x i8] c"Could not find PC in DWARF\00", align 1

; Function Attrs: mustprogress uwtable
define linkonce_odr hidden noundef i64 @_ZN7JNIEnv_12GetLongFieldEP8_jobjectP9_jfieldID(ptr noundef nonnull align 8 dereferenceable(8) %0, ptr noundef %1, ptr noundef %2) #0 comdat align 2 {
  %4 = alloca ptr, align 8
  %5 = alloca ptr, align 8
  %6 = alloca ptr, align 8
  store ptr %0, ptr %4, align 8
  store ptr %1, ptr %5, align 8
  store ptr %2, ptr %6, align 8
  %7 = load ptr, ptr %4, align 8
  %8 = getelementptr inbounds %struct.JNIEnv_, ptr %7, i32 0, i32 0
  %9 = load ptr, ptr %8, align 8
  %10 = getelementptr inbounds %struct.JNINativeInterface_, ptr %9, i32 0, i32 101
  %11 = load ptr, ptr %10, align 8
  %12 = load ptr, ptr %5, align 8
  %13 = load ptr, ptr %6, align 8
  %14 = call noundef i64 %11(ptr noundef %7, ptr noundef %12, ptr noundef %13)
  ret i64 %14
}

; Function Attrs: mustprogress uwtable
define linkonce_odr hidden noundef i32 @_ZN7JNIEnv_8ThrowNewEP7_jclassPKc(ptr noundef nonnull align 8 dereferenceable(8) %0, ptr noundef %1, ptr noundef %2) #0 comdat align 2 {
  %4 = alloca ptr, align 8
  %5 = alloca ptr, align 8
  %6 = alloca ptr, align 8
  store ptr %0, ptr %4, align 8
  store ptr %1, ptr %5, align 8
  store ptr %2, ptr %6, align 8
  %7 = load ptr, ptr %4, align 8
  %8 = getelementptr inbounds %struct.JNIEnv_, ptr %7, i32 0, i32 0
  %9 = load ptr, ptr %8, align 8
  %10 = getelementptr inbounds %struct.JNINativeInterface_, ptr %9, i32 0, i32 14
  %11 = load ptr, ptr %10, align 8
  %12 = load ptr, ptr %5, align 8
  %13 = load ptr, ptr %6, align 8
  %14 = call noundef i32 %11(ptr noundef %7, ptr noundef %12, ptr noundef %13)
  ret i32 %14
}

; Function Attrs: mustprogress uwtable
define linkonce_odr hidden noundef ptr @_ZN7JNIEnv_17ExceptionOccurredEv(ptr noundef nonnull align 8 dereferenceable(8) %0) #0 comdat align 2 {
  %2 = alloca ptr, align 8
  store ptr %0, ptr %2, align 8
  %3 = load ptr, ptr %2, align 8
  %4 = getelementptr inbounds %struct.JNIEnv_, ptr %3, i32 0, i32 0
  %5 = load ptr, ptr %4, align 8
  %6 = getelementptr inbounds %struct.JNINativeInterface_, ptr %5, i32 0, i32 15
  %7 = load ptr, ptr %6, align 8
  %8 = call noundef ptr %7(ptr noundef %3)
  ret ptr %8
}

; Function Attrs: mustprogress uwtable
define linkonce_odr hidden noundef ptr @_ZN7JNIEnv_9FindClassEPKc(ptr noundef nonnull align 8 dereferenceable(8) %0, ptr noundef %1) #0 comdat align 2 {
  %3 = alloca ptr, align 8
  %4 = alloca ptr, align 8
  store ptr %0, ptr %3, align 8
  store ptr %1, ptr %4, align 8
  %5 = load ptr, ptr %3, align 8
  %6 = getelementptr inbounds %struct.JNIEnv_, ptr %5, i32 0, i32 0
  %7 = load ptr, ptr %6, align 8
  %8 = getelementptr inbounds %struct.JNINativeInterface_, ptr %7, i32 0, i32 6
  %9 = load ptr, ptr %8, align 8
  %10 = load ptr, ptr %4, align 8
  %11 = call noundef ptr %9(ptr noundef %5, ptr noundef %10)
  ret ptr %11
}

; Function Attrs: mustprogress uwtable
define internal noundef i64 @_ZL17get_dwarf_contextP7JNIEnv_P8_jobject(ptr noundef %0, ptr noundef %1) #0 {
  %3 = alloca ptr, align 8
  %4 = alloca ptr, align 8
  store ptr %0, ptr %3, align 8
  store ptr %1, ptr %4, align 8
  %5 = load ptr, ptr %3, align 8
  %6 = load ptr, ptr %4, align 8
  %7 = load ptr, ptr @_ZL18p_dwarf_context_ID, align 8
  %8 = call noundef i64 @_ZN7JNIEnv_12GetLongFieldEP8_jobjectP9_jfieldID(ptr noundef nonnull align 8 dereferenceable(8) %5, ptr noundef %6, ptr noundef %7)
  ret i64 %8
}

; Function Attrs: mustprogress uwtable
define void @Java_sun_jvm_hotspot_debugger_linux_amd64_DwarfParser_processDwarf0(ptr noundef %0, ptr noundef %1, i64 noundef %2) #0 {
  %4 = alloca ptr, align 8
  %5 = alloca ptr, align 8
  %6 = alloca i64, align 8
  %7 = alloca ptr, align 8
  %8 = alloca ptr, align 8
  store ptr %0, ptr %4, align 8
  store ptr %1, ptr %5, align 8
  store i64 %2, ptr %6, align 8
  %9 = load ptr, ptr %4, align 8
  %10 = load ptr, ptr %5, align 8
  %11 = call noundef i64 @_ZL17get_dwarf_contextP7JNIEnv_P8_jobject(ptr noundef %9, ptr noundef %10)
  %12 = inttoptr i64 %11 to ptr
  store ptr %12, ptr %7, align 8
  %13 = load ptr, ptr %7, align 8
  %14 = load i64, ptr %6, align 8
  %15 = call noundef zeroext i1 @_ZN11DwarfParser13process_dwarfEm(ptr noundef nonnull align 8 dereferenceable(61) %13, i64 noundef %14)
  br i1 %15, label %27, label %16

16:                                               ; preds = %3
  %17 = load ptr, ptr %4, align 8
  %18 = call noundef ptr @_ZN7JNIEnv_9FindClassEPKc(ptr noundef nonnull align 8 dereferenceable(8) %17, ptr noundef @.str.21)
  store ptr %18, ptr %8, align 8
  %19 = load ptr, ptr %4, align 8
  %20 = call noundef ptr @_ZN7JNIEnv_17ExceptionOccurredEv(ptr noundef nonnull align 8 dereferenceable(8) %19)
  %21 = icmp ne ptr %20, null
  br i1 %21, label %26, label %22

22:                                               ; preds = %16
  %23 = load ptr, ptr %4, align 8
  %24 = load ptr, ptr %8, align 8
  %25 = call noundef i32 @_ZN7JNIEnv_8ThrowNewEP7_jclassPKc(ptr noundef nonnull align 8 dereferenceable(8) %23, ptr noundef %24, ptr noundef @.str.23)
  br label %26

26:                                               ; preds = %22, %16
  br label %27

27:                                               ; preds = %26, %3
  ret void
}