; Function Attrs: mustprogress uwtable
define void @Java_sun_jvm_hotspot_debugger_linux_amd64_DwarfParser_processDwarf0(ptr noundef %0, ptr noundef %1, i64 noundef %2) local_unnamed_addr #0 {
  %4 = load ptr, ptr @_ZL18p_dwarf_context_ID, align 8
  %5 = load ptr, ptr %0, align 8
  %6 = getelementptr inbounds i8, ptr %5, i64 808
  %7 = load ptr, ptr %6, align 8
  %8 = tail call noundef i64 %7(ptr noundef nonnull %0, ptr noundef %1, ptr noundef %4)
  %9 = inttoptr i64 %8 to ptr
  %10 = tail call noundef zeroext i1 @_ZN11DwarfParser13process_dwarfEm(ptr noundef nonnull align 8 dereferenceable(61) %9, i64 noundef %2)
  br i1 %10, label %25, label %11

11:                                               ; preds = %3
  %12 = load ptr, ptr %0, align 8
  %13 = getelementptr inbounds i8, ptr %12, i64 48
  %14 = load ptr, ptr %13, align 8
  %15 = tail call noundef ptr %14(ptr noundef nonnull %0, ptr noundef nonnull @.str.21)
  %16 = load ptr, ptr %0, align 8
  %17 = getelementptr inbounds i8, ptr %16, i64 120
  %18 = load ptr, ptr %17, align 8
  %19 = tail call noundef ptr %18(ptr noundef nonnull %0)
  %.not = icmp eq ptr %19, null
  br i1 %.not, label %20, label %25

20:                                               ; preds = %11
  %21 = load ptr, ptr %0, align 8
  %22 = getelementptr inbounds i8, ptr %21, i64 112
  %23 = load ptr, ptr %22, align 8
  %24 = tail call noundef i32 %23(ptr noundef nonnull %0, ptr noundef %15, ptr noundef nonnull @.str.23)
  br label %25

25:                                               ; preds = %11, %20, %3
  ret void
}